target datalayout = "e-m:e-p270:32:32-p271:32:32-p272:64:64-i64:64-i128:128-f80:128-n8:16:32:64-S128"
target triple = "x86_64-pc-linux-gnu"

%class.tbv_manager = type { %class.fixed_bit_vector_manager, %class.ptr_vector }
%class.fixed_bit_vector_manager = type <{ %class.small_object_allocator, i32, i32, i32, i32, %class.fixed_bit_vector, [4 x i8] }>
%class.small_object_allocator = type { [32 x ptr], [32 x ptr], i64 }
%class.fixed_bit_vector = type { [1 x i32] }
%class.ptr_vector = type { %class.vector }
%class.vector = type { ptr }

; Function Attrs: mustprogress nounwind uwtable
define linkonce_odr hidden noundef i32 @_ZNK24fixed_bit_vector_manager8get_maskEv(ptr noundef nonnull align 8 dereferenceable(540) %0) #4 comdat align 2 {
  %2 = alloca ptr, align 8
  store ptr %0, ptr %2, align 8, !tbaa !12
  %3 = load ptr, ptr %2, align 8
  %4 = getelementptr inbounds nuw %class.fixed_bit_vector_manager, ptr %3, i32 0, i32 4
  %5 = load i32, ptr %4, align 4, !tbaa !53
  ret i32 %5
}

; Function Attrs: mustprogress nounwind uwtable
define linkonce_odr hidden noundef i32 @_ZNK16fixed_bit_vector8get_wordEj(ptr noundef nonnull align 4 dereferenceable(4) %0, i32 noundef %1) #4 comdat align 2 {
  %3 = alloca ptr, align 8
  %4 = alloca i32, align 4
  store ptr %0, ptr %3, align 8, !tbaa !16
  store i32 %1, ptr %4, align 4, !tbaa !20
  %5 = load ptr, ptr %3, align 8
  %6 = getelementptr inbounds nuw %class.fixed_bit_vector, ptr %5, i32 0, i32 0
  %7 = load i32, ptr %4, align 4, !tbaa !20
  %8 = zext i32 %7 to i64
  %9 = getelementptr inbounds nuw [1 x i32], ptr %6, i64 0, i64 %8
  %10 = load i32, ptr %9, align 4, !tbaa !20
  ret i32 %10
}

; Function Attrs: mustprogress nounwind uwtable
define linkonce_odr hidden noundef i32 @_ZNK24fixed_bit_vector_manager9num_wordsEv(ptr noundef nonnull align 8 dereferenceable(540) %0) #4 comdat align 2 {
  %2 = alloca ptr, align 8
  store ptr %0, ptr %2, align 8, !tbaa !12
  %3 = load ptr, ptr %2, align 8
  %4 = getelementptr inbounds nuw %class.fixed_bit_vector_manager, ptr %3, i32 0, i32 3
  %5 = load i32, ptr %4, align 8, !tbaa !52
  ret i32 %5
}

; Function Attrs: mustprogress uwtable
define hidden noundef zeroext i1 @_ZNK11tbv_manager14is_well_formedERK3tbv(ptr noundef nonnull align 8 dereferenceable(552) %0, ptr noundef nonnull align 4 dereferenceable(4) %1) #6 align 2 {
  %3 = alloca i1, align 1
  %4 = alloca ptr, align 8
  %5 = alloca ptr, align 8
  %6 = alloca i32, align 4
  %7 = alloca i32, align 4
  %8 = alloca i32, align 4
  %9 = alloca i32, align 4
  store ptr %0, ptr %4, align 8, !tbaa !7
  store ptr %1, ptr %5, align 8, !tbaa !14
  %10 = load ptr, ptr %4, align 8
  call void @llvm.lifetime.start.p0(i64 4, ptr %6) #3
  %11 = getelementptr inbounds nuw %class.tbv_manager, ptr %10, i32 0, i32 0
  %12 = call noundef i32 @_ZNK24fixed_bit_vector_manager9num_wordsEv(ptr noundef nonnull align 8 dereferenceable(540) %11)
  store i32 %12, ptr %6, align 4, !tbaa !20
  call void @llvm.lifetime.start.p0(i64 4, ptr %7) #3
  call void @llvm.lifetime.start.p0(i64 4, ptr %8) #3
  store i32 0, ptr %8, align 4, !tbaa !20
  br label %13

13:                                               ; preds = %32, %2
  %14 = load i32, ptr %8, align 4, !tbaa !20
  %15 = add i32 %14, 1
  %16 = load i32, ptr %6, align 4, !tbaa !20
  %17 = icmp ult i32 %15, %16
  br i1 %17, label %19, label %18

18:                                               ; preds = %13
  store i32 2, ptr %9, align 4
  br label %35

19:                                               ; preds = %13
  %20 = load ptr, ptr %5, align 8, !tbaa !14
  %21 = load i32, ptr %8, align 4, !tbaa !20
  %22 = call noundef i32 @_ZNK16fixed_bit_vector8get_wordEj(ptr noundef nonnull align 4 dereferenceable(4) %20, i32 noundef %21)
  store i32 %22, ptr %7, align 4, !tbaa !20
  %23 = load i32, ptr %7, align 4, !tbaa !20
  %24 = load i32, ptr %7, align 4, !tbaa !20
  %25 = shl i32 %24, 1
  %26 = or i32 %23, %25
  %27 = or i32 %26, 1431655765
  store i32 %27, ptr %7, align 4, !tbaa !20
  %28 = load i32, ptr %7, align 4, !tbaa !20
  %29 = icmp ne i32 %28, -1
  br i1 %29, label %30, label %31

30:                                               ; preds = %19
  store i1 false, ptr %3, align 1
  store i32 1, ptr %9, align 4
  br label %35

31:                                               ; preds = %19
  br label %32

32:                                               ; preds = %31
  %33 = load i32, ptr %8, align 4, !tbaa !20
  %34 = add i32 %33, 1
  store i32 %34, ptr %8, align 4, !tbaa !20
  br label %13, !llvm.loop !51

35:                                               ; preds = %30, %18
  call void @llvm.lifetime.end.p0(i64 4, ptr %8) #3
  %36 = load i32, ptr %9, align 4
  switch i32 %36, label %58 [
    i32 2, label %37
  ]

37:                                               ; preds = %35
  %38 = load i32, ptr %6, align 4, !tbaa !20
  %39 = icmp ugt i32 %38, 0
  br i1 %39, label %40, label %57

40:                                               ; preds = %37
  %41 = getelementptr inbounds nuw %class.tbv_manager, ptr %10, i32 0, i32 0
  %42 = load ptr, ptr %5, align 8, !tbaa !14
  %43 = call noundef i32 @_ZNK24fixed_bit_vector_manager9last_wordERK16fixed_bit_vector(ptr noundef nonnull align 8 dereferenceable(540) %41, ptr noundef nonnull align 4 dereferenceable(4) %42)
  store i32 %43, ptr %7, align 4, !tbaa !20
  %44 = load i32, ptr %7, align 4, !tbaa !20
  %45 = load i32, ptr %7, align 4, !tbaa !20
  %46 = shl i32 %45, 1
  %47 = or i32 %44, %46
  %48 = or i32 %47, 1431655765
  %49 = getelementptr inbounds nuw %class.tbv_manager, ptr %10, i32 0, i32 0
  %50 = call noundef i32 @_ZNK24fixed_bit_vector_manager8get_maskEv(ptr noundef nonnull align 8 dereferenceable(540) %49)
  %51 = xor i32 %50, -1
  %52 = or i32 %48, %51
  store i32 %52, ptr %7, align 4, !tbaa !20
  %53 = load i32, ptr %7, align 4, !tbaa !20
  %54 = icmp ne i32 %53, -1
  br i1 %54, label %55, label %56

55:                                               ; preds = %40
  store i1 false, ptr %3, align 1
  store i32 1, ptr %9, align 4
  br label %58

56:                                               ; preds = %40
  br label %57

57:                                               ; preds = %56, %37
  store i1 true, ptr %3, align 1
  store i32 1, ptr %9, align 4
  br label %58

58:                                               ; preds = %57, %55, %35
  call void @llvm.lifetime.end.p0(i64 4, ptr %7) #3
  call void @llvm.lifetime.end.p0(i64 4, ptr %6) #3
  %59 = load i1, ptr %3, align 1
  ret i1 %59
}