; Function Attrs: mustprogress uwtable
define hidden noundef zeroext i1 @_ZNK11tbv_manager14is_well_formedERK3tbv(ptr noundef nonnull align 8 dereferenceable(552) %0, ptr noundef nonnull align 4 dereferenceable(4) %1) local_unnamed_addr #5 align 2 {
  %3 = getelementptr inbounds nuw i8, ptr %0, i64 528
  %4 = load i32, ptr %3, align 8, !tbaa !40
  %5 = tail call i32 @llvm.usub.sat.i32(i32 %4, i32 1)
  %wide.trip.count = zext i32 %5 to i64
  br label %6

6:                                                ; preds = %7, %2
  %indvars.iv = phi i64 [ %indvars.iv.next, %7 ], [ 0, %2 ]
  %exitcond.not = icmp eq i64 %indvars.iv, %wide.trip.count
  br i1 %exitcond.not, label %.critedge, label %7

7:                                                ; preds = %6
  %indvars.iv.next = add nuw nsw i64 %indvars.iv, 1
  %8 = getelementptr inbounds nuw [1 x i32], ptr %1, i64 0, i64 %indvars.iv
  %9 = load i32, ptr %8, align 4, !tbaa !17
  %10 = shl i32 %9, 1
  %11 = or i32 %10, %9
  %12 = and i32 %11, -1431655766
  %.not = icmp eq i32 %12, -1431655766
  br i1 %.not, label %6, label %.loopexit, !llvm.loop !41

.critedge:                                        ; preds = %6
  %.not19 = icmp eq i32 %4, 0
  br i1 %.not19, label %22, label %13

13:                                               ; preds = %.critedge
  %14 = tail call noundef i32 @_ZNK24fixed_bit_vector_manager9last_wordERK16fixed_bit_vector(ptr noundef nonnull align 8 dereferenceable(540) %0, ptr noundef nonnull align 4 dereferenceable(4) %1)
  %15 = shl i32 %14, 1
  %16 = getelementptr inbounds nuw i8, ptr %0, i64 532
  %17 = load i32, ptr %16, align 4, !tbaa !42
  %18 = xor i32 %17, -1
  %19 = or i32 %15, %18
  %20 = or i32 %19, %14
  %21 = and i32 %20, -1431655766
  %.not20 = icmp eq i32 %21, -1431655766
  br i1 %.not20, label %22, label %.loopexit

22:                                               ; preds = %13, %.critedge
  br label %.loopexit

.loopexit:                                        ; preds = %7, %13, %22
  %.1 = phi i1 [ true, %22 ], [ false, %13 ], [ false, %7 ]
  ret i1 %.1
}